target datalayout = "e-m:e-p270:32:32-p271:32:32-p272:64:64-i64:64-i128:128-f80:128-n8:16:32:64-S128"
target triple = "x86_64-pc-linux-gnu"

%struct.QVirtioPCIDevice = type { %struct.QOSGraphObject, %struct.QVirtioDevice, ptr, %struct.QPCIBar, ptr, i16, i64, i32, i32, i32, i32, i32, i32, i32 }
%struct.QOSGraphObject = type { ptr, ptr, ptr, ptr, ptr }
%struct.QVirtioDevice = type { ptr, i16, i64, i8, i8 }
%struct.QPCIBar = type { i64, i8 }
%struct.QVirtQueue = type { ptr, i64, i64, i64, i16, i32, i32, i32, i32, i16, i8, i8 }

; Function Attrs: nounwind sspstrong uwtable
define internal void @set_queue_address(ptr noundef %0, ptr noundef %1) #0 {
  %3 = alloca ptr, align 8
  %4 = alloca ptr, align 8
  %5 = alloca ptr, align 8
  %6 = alloca ptr, align 8
  %7 = alloca ptr, align 8
  store ptr %0, ptr %3, align 8
  store ptr %1, ptr %4, align 8
  call void @llvm.lifetime.start.p0(i64 8, ptr %5) #5
  call void @llvm.lifetime.start.p0(i64 8, ptr %6) #5
  %8 = load ptr, ptr %3, align 8
  store ptr %8, ptr %6, align 8
  %9 = load ptr, ptr %6, align 8
  %10 = getelementptr inbounds i8, ptr %9, i64 -40
  store ptr %10, ptr %7, align 8
  call void @llvm.lifetime.end.p0(i64 8, ptr %6) #5
  %11 = load ptr, ptr %7, align 8
  store ptr %11, ptr %5, align 8
  %12 = load ptr, ptr %5, align 8
  %13 = getelementptr inbounds nuw %struct.QVirtioPCIDevice, ptr %12, i32 0, i32 2
  %14 = load ptr, ptr %13, align 8
  %15 = load ptr, ptr %5, align 8
  %16 = getelementptr inbounds nuw %struct.QVirtioPCIDevice, ptr %15, i32 0, i32 3
  %17 = load ptr, ptr %5, align 8
  %18 = getelementptr inbounds nuw %struct.QVirtioPCIDevice, ptr %17, i32 0, i32 9
  %19 = load i32, ptr %18, align 8
  %20 = zext i32 %19 to i64
  %21 = add i64 %20, 32
  %22 = load ptr, ptr %4, align 8
  %23 = getelementptr inbounds nuw %struct.QVirtQueue, ptr %22, i32 0, i32 1
  %24 = load i64, ptr %23, align 8
  %25 = trunc i64 %24 to i32
  %26 = getelementptr inbounds nuw { i64, i8 }, ptr %16, i32 0, i32 0
  %27 = load i64, ptr %26, align 8
  %28 = getelementptr inbounds nuw { i64, i8 }, ptr %16, i32 0, i32 1
  %29 = load i8, ptr %28, align 8
  call void @qpci_io_writel(ptr noundef %14, i64 %27, i8 %29, i64 noundef %21, i32 noundef %25)
  %30 = load ptr, ptr %5, align 8
  %31 = getelementptr inbounds nuw %struct.QVirtioPCIDevice, ptr %30, i32 0, i32 2
  %32 = load ptr, ptr %31, align 8
  %33 = load ptr, ptr %5, align 8
  %34 = getelementptr inbounds nuw %struct.QVirtioPCIDevice, ptr %33, i32 0, i32 3
  %35 = load ptr, ptr %5, align 8
  %36 = getelementptr inbounds nuw %struct.QVirtioPCIDevice, ptr %35, i32 0, i32 9
  %37 = load i32, ptr %36, align 8
  %38 = zext i32 %37 to i64
  %39 = add i64 %38, 36
  %40 = load ptr, ptr %4, align 8
  %41 = getelementptr inbounds nuw %struct.QVirtQueue, ptr %40, i32 0, i32 1
  %42 = load i64, ptr %41, align 8
  %43 = lshr i64 %42, 32
  %44 = trunc i64 %43 to i32
  %45 = getelementptr inbounds nuw { i64, i8 }, ptr %34, i32 0, i32 0
  %46 = load i64, ptr %45, align 8
  %47 = getelementptr inbounds nuw { i64, i8 }, ptr %34, i32 0, i32 1
  %48 = load i8, ptr %47, align 8
  call void @qpci_io_writel(ptr noundef %32, i64 %46, i8 %48, i64 noundef %39, i32 noundef %44)
  %49 = load ptr, ptr %5, align 8
  %50 = getelementptr inbounds nuw %struct.QVirtioPCIDevice, ptr %49, i32 0, i32 2
  %51 = load ptr, ptr %50, align 8
  %52 = load ptr, ptr %5, align 8
  %53 = getelementptr inbounds nuw %struct.QVirtioPCIDevice, ptr %52, i32 0, i32 3
  %54 = load ptr, ptr %5, align 8
  %55 = getelementptr inbounds nuw %struct.QVirtioPCIDevice, ptr %54, i32 0, i32 9
  %56 = load i32, ptr %55, align 8
  %57 = zext i32 %56 to i64
  %58 = add i64 %57, 40
  %59 = load ptr, ptr %4, align 8
  %60 = getelementptr inbounds nuw %struct.QVirtQueue, ptr %59, i32 0, i32 2
  %61 = load i64, ptr %60, align 8
  %62 = trunc i64 %61 to i32
  %63 = getelementptr inbounds nuw { i64, i8 }, ptr %53, i32 0, i32 0
  %64 = load i64, ptr %63, align 8
  %65 = getelementptr inbounds nuw { i64, i8 }, ptr %53, i32 0, i32 1
  %66 = load i8, ptr %65, align 8
  call void @qpci_io_writel(ptr noundef %51, i64 %64, i8 %66, i64 noundef %58, i32 noundef %62)
  %67 = load ptr, ptr %5, align 8
  %68 = getelementptr inbounds nuw %struct.QVirtioPCIDevice, ptr %67, i32 0, i32 2
  %69 = load ptr, ptr %68, align 8
  %70 = load ptr, ptr %5, align 8
  %71 = getelementptr inbounds nuw %struct.QVirtioPCIDevice, ptr %70, i32 0, i32 3
  %72 = load ptr, ptr %5, align 8
  %73 = getelementptr inbounds nuw %struct.QVirtioPCIDevice, ptr %72, i32 0, i32 9
  %74 = load i32, ptr %73, align 8
  %75 = zext i32 %74 to i64
  %76 = add i64 %75, 44
  %77 = load ptr, ptr %4, align 8
  %78 = getelementptr inbounds nuw %struct.QVirtQueue, ptr %77, i32 0, i32 2
  %79 = load i64, ptr %78, align 8
  %80 = lshr i64 %79, 32
  %81 = trunc i64 %80 to i32
  %82 = getelementptr inbounds nuw { i64, i8 }, ptr %71, i32 0, i32 0
  %83 = load i64, ptr %82, align 8
  %84 = getelementptr inbounds nuw { i64, i8 }, ptr %71, i32 0, i32 1
  %85 = load i8, ptr %84, align 8
  call void @qpci_io_writel(ptr noundef %69, i64 %83, i8 %85, i64 noundef %76, i32 noundef %81)
  %86 = load ptr, ptr %5, align 8
  %87 = getelementptr inbounds nuw %struct.QVirtioPCIDevice, ptr %86, i32 0, i32 2
  %88 = load ptr, ptr %87, align 8
  %89 = load ptr, ptr %5, align 8
  %90 = getelementptr inbounds nuw %struct.QVirtioPCIDevice, ptr %89, i32 0, i32 3
  %91 = load ptr, ptr %5, align 8
  %92 = getelementptr inbounds nuw %struct.QVirtioPCIDevice, ptr %91, i32 0, i32 9
  %93 = load i32, ptr %92, align 8
  %94 = zext i32 %93 to i64
  %95 = add i64 %94, 48
  %96 = load ptr, ptr %4, align 8
  %97 = getelementptr inbounds nuw %struct.QVirtQueue, ptr %96, i32 0, i32 3
  %98 = load i64, ptr %97, align 8
  %99 = trunc i64 %98 to i32
  %100 = getelementptr inbounds nuw { i64, i8 }, ptr %90, i32 0, i32 0
  %101 = load i64, ptr %100, align 8
  %102 = getelementptr inbounds nuw { i64, i8 }, ptr %90, i32 0, i32 1
  %103 = load i8, ptr %102, align 8
  call void @qpci_io_writel(ptr noundef %88, i64 %101, i8 %103, i64 noundef %95, i32 noundef %99)
  %104 = load ptr, ptr %5, align 8
  %105 = getelementptr inbounds nuw %struct.QVirtioPCIDevice, ptr %104, i32 0, i32 2
  %106 = load ptr, ptr %105, align 8
  %107 = load ptr, ptr %5, align 8
  %108 = getelementptr inbounds nuw %struct.QVirtioPCIDevice, ptr %107, i32 0, i32 3
  %109 = load ptr, ptr %5, align 8
  %110 = getelementptr inbounds nuw %struct.QVirtioPCIDevice, ptr %109, i32 0, i32 9
  %111 = load i32, ptr %110, align 8
  %112 = zext i32 %111 to i64
  %113 = add i64 %112, 52
  %114 = load ptr, ptr %4, align 8
  %115 = getelementptr inbounds nuw %struct.QVirtQueue, ptr %114, i32 0, i32 3
  %116 = load i64, ptr %115, align 8
  %117 = lshr i64 %116, 32
  %118 = trunc i64 %117 to i32
  %119 = getelementptr inbounds nuw { i64, i8 }, ptr %108, i32 0, i32 0
  %120 = load i64, ptr %119, align 8
  %121 = getelementptr inbounds nuw { i64, i8 }, ptr %108, i32 0, i32 1
  %122 = load i8, ptr %121, align 8
  call void @qpci_io_writel(ptr noundef %106, i64 %120, i8 %122, i64 noundef %113, i32 noundef %118)
  call void @llvm.lifetime.end.p0(i64 8, ptr %5) #5
  ret void
}