; Function Attrs: nounwind sspstrong uwtable
define internal void @set_queue_address(ptr noundef readonly captures(none) %0, ptr noundef readonly captures(none) %1) #0 {
  %3 = getelementptr inbounds nuw i8, ptr %0, i64 32
  %4 = load ptr, ptr %3, align 8
  %5 = getelementptr inbounds nuw i8, ptr %0, i64 40
  %6 = getelementptr inbounds nuw i8, ptr %0, i64 88
  %7 = load i32, ptr %6, align 8
  %8 = zext i32 %7 to i64
  %9 = add nuw nsw i64 %8, 32
  %10 = getelementptr inbounds nuw i8, ptr %1, i64 8
  %11 = load i64, ptr %10, align 8
  %12 = trunc i64 %11 to i32
  %13 = load i64, ptr %5, align 8
  %14 = getelementptr inbounds nuw i8, ptr %0, i64 48
  %15 = load i8, ptr %14, align 8
  tail call void @qpci_io_writel(ptr noundef %4, i64 %13, i8 %15, i64 noundef %9, i32 noundef %12) #3
  %16 = load ptr, ptr %3, align 8
  %17 = load i32, ptr %6, align 8
  %18 = zext i32 %17 to i64
  %19 = add nuw nsw i64 %18, 36
  %20 = load i64, ptr %10, align 8
  %21 = lshr i64 %20, 32
  %22 = trunc nuw i64 %21 to i32
  %23 = load i64, ptr %5, align 8
  %24 = load i8, ptr %14, align 8
  tail call void @qpci_io_writel(ptr noundef %16, i64 %23, i8 %24, i64 noundef %19, i32 noundef %22) #3
  %25 = load ptr, ptr %3, align 8
  %26 = load i32, ptr %6, align 8
  %27 = zext i32 %26 to i64
  %28 = add nuw nsw i64 %27, 40
  %29 = getelementptr inbounds nuw i8, ptr %1, i64 16
  %30 = load i64, ptr %29, align 8
  %31 = trunc i64 %30 to i32
  %32 = load i64, ptr %5, align 8
  %33 = load i8, ptr %14, align 8
  tail call void @qpci_io_writel(ptr noundef %25, i64 %32, i8 %33, i64 noundef %28, i32 noundef %31) #3
  %34 = load ptr, ptr %3, align 8
  %35 = load i32, ptr %6, align 8
  %36 = zext i32 %35 to i64
  %37 = add nuw nsw i64 %36, 44
  %38 = load i64, ptr %29, align 8
  %39 = lshr i64 %38, 32
  %40 = trunc nuw i64 %39 to i32
  %41 = load i64, ptr %5, align 8
  %42 = load i8, ptr %14, align 8
  tail call void @qpci_io_writel(ptr noundef %34, i64 %41, i8 %42, i64 noundef %37, i32 noundef %40) #3
  %43 = load ptr, ptr %3, align 8
  %44 = load i32, ptr %6, align 8
  %45 = zext i32 %44 to i64
  %46 = add nuw nsw i64 %45, 48
  %47 = getelementptr inbounds nuw i8, ptr %1, i64 24
  %48 = load i64, ptr %47, align 8
  %49 = trunc i64 %48 to i32
  %50 = load i64, ptr %5, align 8
  %51 = load i8, ptr %14, align 8
  tail call void @qpci_io_writel(ptr noundef %43, i64 %50, i8 %51, i64 noundef %46, i32 noundef %49) #3
  %52 = load ptr, ptr %3, align 8
  %53 = load i32, ptr %6, align 8
  %54 = zext i32 %53 to i64
  %55 = add nuw nsw i64 %54, 52
  %56 = load i64, ptr %47, align 8
  %57 = lshr i64 %56, 32
  %58 = trunc nuw i64 %57 to i32
  %59 = load i64, ptr %5, align 8
  %60 = load i8, ptr %14, align 8
  tail call void @qpci_io_writel(ptr noundef %52, i64 %59, i8 %60, i64 noundef %55, i32 noundef %58) #3
  ret void
}